target datalayout = "e-m:e-p270:32:32-p271:32:32-p272:64:64-i64:64-i128:128-f80:128-n8:16:32:64-S128"
target triple = "x86_64-pc-linux-gnu"

%struct.Cbs2_Que_t_ = type { i32, i32, i32, ptr }

; Function Attrs: inlinehint nounwind uwtable
define internal void @Cbs2_QuePush(ptr noundef %0, i32 noundef %1) #5 {
  %3 = alloca ptr, align 8
  %4 = alloca i32, align 4
  store ptr %0, ptr %3, align 8, !tbaa !88
  store i32 %1, ptr %4, align 4, !tbaa !19
  %5 = load ptr, ptr %3, align 8, !tbaa !88
  %6 = getelementptr inbounds nuw %struct.Cbs2_Que_t_, ptr %5, i32 0, i32 1
  %7 = load i32, ptr %6, align 4, !tbaa !90
  %8 = load ptr, ptr %3, align 8, !tbaa !88
  %9 = getelementptr inbounds nuw %struct.Cbs2_Que_t_, ptr %8, i32 0, i32 2
  %10 = load i32, ptr %9, align 8, !tbaa !91
  %11 = icmp eq i32 %7, %10
  br i1 %11, label %12, label %42

12:                                               ; preds = %2
  %13 = load ptr, ptr %3, align 8, !tbaa !88
  %14 = getelementptr inbounds nuw %struct.Cbs2_Que_t_, ptr %13, i32 0, i32 2
  %15 = load i32, ptr %14, align 8, !tbaa !91
  %16 = mul nsw i32 %15, 2
  store i32 %16, ptr %14, align 8, !tbaa !91
  %17 = load ptr, ptr %3, align 8, !tbaa !88
  %18 = getelementptr inbounds nuw %struct.Cbs2_Que_t_, ptr %17, i32 0, i32 3
  %19 = load ptr, ptr %18, align 8, !tbaa !92
  %20 = icmp ne ptr %19, null
  br i1 %20, label %21, label %31

21:                                               ; preds = %12
  %22 = load ptr, ptr %3, align 8, !tbaa !88
  %23 = getelementptr inbounds nuw %struct.Cbs2_Que_t_, ptr %22, i32 0, i32 3
  %24 = load ptr, ptr %23, align 8, !tbaa !92
  %25 = load ptr, ptr %3, align 8, !tbaa !88
  %26 = getelementptr inbounds nuw %struct.Cbs2_Que_t_, ptr %25, i32 0, i32 2
  %27 = load i32, ptr %26, align 8, !tbaa !91
  %28 = sext i32 %27 to i64
  %29 = mul i64 4, %28
  %30 = call ptr @realloc(ptr noundef %24, i64 noundef %29) #14
  br label %38

31:                                               ; preds = %12
  %32 = load ptr, ptr %3, align 8, !tbaa !88
  %33 = getelementptr inbounds nuw %struct.Cbs2_Que_t_, ptr %32, i32 0, i32 2
  %34 = load i32, ptr %33, align 8, !tbaa !91
  %35 = sext i32 %34 to i64
  %36 = mul i64 4, %35
  %37 = call noalias ptr @malloc(i64 noundef %36) #13
  br label %38

38:                                               ; preds = %31, %21
  %39 = phi ptr [ %30, %21 ], [ %37, %31 ]
  %40 = load ptr, ptr %3, align 8, !tbaa !88
  %41 = getelementptr inbounds nuw %struct.Cbs2_Que_t_, ptr %40, i32 0, i32 3
  store ptr %39, ptr %41, align 8, !tbaa !92
  br label %42

42:                                               ; preds = %38, %2
  %43 = load i32, ptr %4, align 4, !tbaa !19
  %44 = load ptr, ptr %3, align 8, !tbaa !88
  %45 = getelementptr inbounds nuw %struct.Cbs2_Que_t_, ptr %44, i32 0, i32 3
  %46 = load ptr, ptr %45, align 8, !tbaa !92
  %47 = load ptr, ptr %3, align 8, !tbaa !88
  %48 = getelementptr inbounds nuw %struct.Cbs2_Que_t_, ptr %47, i32 0, i32 1
  %49 = load i32, ptr %48, align 4, !tbaa !90
  %50 = add nsw i32 %49, 1
  store i32 %50, ptr %48, align 4, !tbaa !90
  %51 = sext i32 %49 to i64
  %52 = getelementptr inbounds i32, ptr %46, i64 %51
  store i32 %43, ptr %52, align 4, !tbaa !19
  ret void
}