; Function Attrs: inlinehint mustprogress nounwind willreturn uwtable
define internal fastcc void @Cbs2_QuePush(ptr noundef captures(none) %0, i32 noundef %1) unnamed_addr #10 {
  %3 = getelementptr inbounds nuw i8, ptr %0, i64 4
  %4 = load i32, ptr %3, align 4, !tbaa !68
  %5 = getelementptr inbounds nuw i8, ptr %0, i64 8
  %6 = load i32, ptr %5, align 8, !tbaa !69
  %7 = icmp eq i32 %4, %6
  br i1 %7, label %8, label %._crit_edge

._crit_edge:                                      ; preds = %2
  %.phi.trans.insert = getelementptr inbounds nuw i8, ptr %0, i64 16
  %.pre = load ptr, ptr %.phi.trans.insert, align 8, !tbaa !70
  br label %20

8:                                                ; preds = %2
  %9 = shl nsw i32 %4, 1
  store i32 %9, ptr %5, align 8, !tbaa !69
  %10 = getelementptr inbounds nuw i8, ptr %0, i64 16
  %11 = load ptr, ptr %10, align 8, !tbaa !70
  %.not = icmp eq ptr %11, null
  %12 = sext i32 %9 to i64
  %13 = shl nsw i64 %12, 2
  br i1 %.not, label %16, label %14

14:                                               ; preds = %8
  %15 = tail call ptr @realloc(ptr noundef nonnull %11, i64 noundef %13) #27
  %.pre11.pre = load i32, ptr %3, align 4, !tbaa !68
  br label %18

16:                                               ; preds = %8
  %17 = tail call noalias ptr @malloc(i64 noundef %13) #26
  br label %18

18:                                               ; preds = %16, %14
  %.pre11 = phi i32 [ %.pre11.pre, %14 ], [ %4, %16 ]
  %19 = phi ptr [ %15, %14 ], [ %17, %16 ]
  store ptr %19, ptr %10, align 8, !tbaa !70
  br label %20

20:                                               ; preds = %._crit_edge, %18
  %21 = phi i32 [ %4, %._crit_edge ], [ %.pre11, %18 ]
  %22 = phi ptr [ %.pre, %._crit_edge ], [ %19, %18 ]
  %23 = add nsw i32 %21, 1
  store i32 %23, ptr %3, align 4, !tbaa !68
  %24 = sext i32 %21 to i64
  %25 = getelementptr inbounds i32, ptr %22, i64 %24
  store i32 %1, ptr %25, align 4, !tbaa !60
  ret void
}